; Function Attrs: mustprogress uwtable
define hidden void @_ZN4lean2ir7mk_ssetERKNS_3natEjjS3_NS0_4typeERKNS_10object_refE(ptr dead_on_unwind noalias writable writeonly sret(%"class.lean::object_ref") align 8 captures(none) initializes((0, 8)) %0, ptr noundef nonnull readonly align 8 captures(none) dereferenceable(8) %1, i32 noundef %2, i32 noundef %3, ptr noundef nonnull readonly align 8 captures(none) dereferenceable(8) %4, i32 noundef %5, ptr noundef nonnull readonly align 8 captures(none) dereferenceable(8) %6) local_unnamed_addr #0 {
  %8 = load ptr, ptr %1, align 8, !tbaa !3
  %9 = ptrtoint ptr %8 to i64
  %10 = and i64 %9, 1
  %.not.i.i = icmp eq i64 %10, 0
  br i1 %.not.i.i, label %11, label %_ZNK4lean10object_ref10to_obj_argEv.exit

11:                                               ; preds = %7
  %.val.i.i.i = load i32, ptr %8, align 4, !tbaa !8
  %12 = icmp sgt i32 %.val.i.i.i, 0
  br i1 %12, label %13, label %15, !prof !11

13:                                               ; preds = %11
  %14 = add nuw nsw i32 %.val.i.i.i, 1
  store i32 %14, ptr %8, align 4, !tbaa !8
  br label %_ZNK4lean10object_ref10to_obj_argEv.exit

15:                                               ; preds = %11
  %.not.i.i.i = icmp eq i32 %.val.i.i.i, 0
  br i1 %.not.i.i.i, label %_ZNK4lean10object_ref10to_obj_argEv.exit, label %16

16:                                               ; preds = %15
  tail call void @lean_inc_ref_cold(ptr noundef nonnull %8)
  %.pre.i = load ptr, ptr %1, align 8, !tbaa !3
  br label %_ZNK4lean10object_ref10to_obj_argEv.exit

_ZNK4lean10object_ref10to_obj_argEv.exit:         ; preds = %7, %13, %15, %16
  %17 = phi ptr [ %8, %7 ], [ %8, %13 ], [ %8, %15 ], [ %.pre.i, %16 ]
  %18 = load ptr, ptr %4, align 8, !tbaa !3
  %19 = ptrtoint ptr %18 to i64
  %20 = and i64 %19, 1
  %.not.i.i5 = icmp eq i64 %20, 0
  br i1 %.not.i.i5, label %21, label %_ZNK4lean10object_ref10to_obj_argEv.exit9

21:                                               ; preds = %_ZNK4lean10object_ref10to_obj_argEv.exit
  %.val.i.i.i6 = load i32, ptr %18, align 4, !tbaa !8
  %22 = icmp sgt i32 %.val.i.i.i6, 0
  br i1 %22, label %23, label %25, !prof !11

23:                                               ; preds = %21
  %24 = add nuw nsw i32 %.val.i.i.i6, 1
  store i32 %24, ptr %18, align 4, !tbaa !8
  br label %_ZNK4lean10object_ref10to_obj_argEv.exit9

25:                                               ; preds = %21
  %.not.i.i.i7 = icmp eq i32 %.val.i.i.i6, 0
  br i1 %.not.i.i.i7, label %_ZNK4lean10object_ref10to_obj_argEv.exit9, label %26

26:                                               ; preds = %25
  tail call void @lean_inc_ref_cold(ptr noundef nonnull %18)
  %.pre.i8 = load ptr, ptr %4, align 8, !tbaa !3
  br label %_ZNK4lean10object_ref10to_obj_argEv.exit9

_ZNK4lean10object_ref10to_obj_argEv.exit9:        ; preds = %_ZNK4lean10object_ref10to_obj_argEv.exit, %23, %25, %26
  %27 = phi ptr [ %18, %_ZNK4lean10object_ref10to_obj_argEv.exit ], [ %18, %23 ], [ %18, %25 ], [ %.pre.i8, %26 ]
  %28 = load ptr, ptr %6, align 8, !tbaa !3
  %29 = ptrtoint ptr %28 to i64
  %30 = and i64 %29, 1
  %.not.i.i10 = icmp eq i64 %30, 0
  br i1 %.not.i.i10, label %31, label %_ZNK4lean10object_ref10to_obj_argEv.exit14

31:                                               ; preds = %_ZNK4lean10object_ref10to_obj_argEv.exit9
  %.val.i.i.i11 = load i32, ptr %28, align 4, !tbaa !8
  %32 = icmp sgt i32 %.val.i.i.i11, 0
  br i1 %32, label %33, label %35, !prof !11

33:                                               ; preds = %31
  %34 = add nuw nsw i32 %.val.i.i.i11, 1
  store i32 %34, ptr %28, align 4, !tbaa !8
  br label %_ZNK4lean10object_ref10to_obj_argEv.exit14

35:                                               ; preds = %31
  %.not.i.i.i12 = icmp eq i32 %.val.i.i.i11, 0
  br i1 %.not.i.i.i12, label %_ZNK4lean10object_ref10to_obj_argEv.exit14, label %36

36:                                               ; preds = %35
  tail call void @lean_inc_ref_cold(ptr noundef nonnull %28)
  %.pre.i13 = load ptr, ptr %6, align 8, !tbaa !3
  br label %_ZNK4lean10object_ref10to_obj_argEv.exit14

_ZNK4lean10object_ref10to_obj_argEv.exit14:       ; preds = %_ZNK4lean10object_ref10to_obj_argEv.exit9, %33, %35, %36
  %37 = phi ptr [ %28, %_ZNK4lean10object_ref10to_obj_argEv.exit9 ], [ %28, %33 ], [ %28, %35 ], [ %.pre.i13, %36 ]
  %38 = sext i32 %5 to i64
  %39 = shl nsw i64 %38, 1
  %40 = or disjoint i64 %39, 1
  %41 = inttoptr i64 %40 to ptr
  %42 = zext i32 %3 to i64
  %43 = shl nuw nsw i64 %42, 1
  %44 = or disjoint i64 %43, 1
  %45 = inttoptr i64 %44 to ptr
  %46 = zext i32 %2 to i64
  %47 = shl nuw nsw i64 %46, 1
  %48 = or disjoint i64 %47, 1
  %49 = inttoptr i64 %48 to ptr
  %50 = tail call ptr @lean_ir_mk_sset(ptr noundef %17, ptr noundef nonnull %49, ptr noundef nonnull %45, ptr noundef %27, ptr noundef nonnull %41, ptr noundef %37)
  store ptr %50, ptr %0, align 8, !tbaa !3
  ret void
}